target datalayout = "e-m:e-p270:32:32-p271:32:32-p272:64:64-i64:64-i128:128-f80:128-n8:16:32:64-S128"
target triple = "x86_64-unknown-linux-gnu"

%"class.std::set.0" = type { %"class.std::_Rb_tree.1" }
%"class.std::_Rb_tree.1" = type { %"struct.std::_Rb_tree<QuantLib::Observer *, QuantLib::Observer *, std::_Identity<QuantLib::Observer *>, std::less<QuantLib::Observer *>>::_Rb_tree_impl" }
%"struct.std::_Rb_tree<QuantLib::Observer *, QuantLib::Observer *, std::_Identity<QuantLib::Observer *>, std::less<QuantLib::Observer *>>::_Rb_tree_impl" = type { [8 x i8], %"struct.std::_Rb_tree_header" }
%"struct.std::_Rb_tree_header" = type { %"struct.std::_Rb_tree_node_base", i64 }
%"struct.std::_Rb_tree_node_base" = type { i32, ptr, ptr, ptr }
%"class.std::set" = type { %"class.std::_Rb_tree" }
%"class.std::_Rb_tree" = type { %"struct.std::_Rb_tree<boost::shared_ptr<QuantLib::Observable>, boost::shared_ptr<QuantLib::Observable>, std::_Identity<boost::shared_ptr<QuantLib::Observable>>, std::less<boost::shared_ptr<QuantLib::Observable>>>::_Rb_tree_impl" }
%"struct.std::_Rb_tree<boost::shared_ptr<QuantLib::Observable>, boost::shared_ptr<QuantLib::Observable>, std::_Identity<boost::shared_ptr<QuantLib::Observable>>, std::less<boost::shared_ptr<QuantLib::Observable>>>::_Rb_tree_impl" = type { [8 x i8], %"struct.std::_Rb_tree_header" }
%"class.QuantLib::Observable" = type { ptr, %"class.std::set.0" }
%"class.QuantLib::Observer" = type { ptr, %"class.std::set" }
%"class.std::vector.35" = type { %"struct.std::_Vector_base.36" }
%"struct.std::_Vector_base.36" = type { %"struct.std::_Vector_base<double, std::allocator<double>>::_Vector_impl" }
%"struct.std::_Vector_base<double, std::allocator<double>>::_Vector_impl" = type { %"struct.std::_Vector_base<double, std::allocator<double>>::_Vector_impl_data" }
%"struct.std::_Vector_base<double, std::allocator<double>>::_Vector_impl_data" = type { ptr, ptr, ptr }
%"class.QuantLib::RangeAccrualPricer" = type { %"class.QuantLib::FloatingRateCouponPricer.base", ptr, double, double, double, %"class.std::vector.35", %"class.std::vector.35", %"class.std::vector.35", i64, double, double, double, double, double, double, %"class.QuantLib::Observer", %"class.QuantLib::Observable" }
%"class.QuantLib::FloatingRateCouponPricer.base" = type { ptr }
%"class.__gnu_cxx::__normal_iterator.132" = type { ptr }

; Function Attrs: mustprogress nounwind uwtable
define linkonce_odr void @_ZN9__gnu_cxx17__normal_iteratorIPKdSt6vectorIdSaIdEEEC2ERKS2_(ptr noundef nonnull align 8 dereferenceable(8) %this, ptr noundef nonnull align 8 dereferenceable(8) %__i) unnamed_addr #1 comdat align 2 {
entry:
  %this.addr = alloca ptr, align 8
  %__i.addr = alloca ptr, align 8
  store ptr %this, ptr %this.addr, align 8, !tbaa !3
  store ptr %__i, ptr %__i.addr, align 8, !tbaa !3
  %this1 = load ptr, ptr %this.addr, align 8
  %_M_current = getelementptr inbounds nuw %"class.__gnu_cxx::__normal_iterator.132", ptr %this1, i32 0, i32 0
  %0 = load ptr, ptr %__i.addr, align 8, !tbaa !3
  %1 = load ptr, ptr %0, align 8, !tbaa !3
  store ptr %1, ptr %_M_current, align 8, !tbaa !199
  ret void
}

; Function Attrs: mustprogress nounwind uwtable
define linkonce_odr noundef nonnull align 8 dereferenceable(8) ptr @_ZNK9__gnu_cxx17__normal_iteratorIPKdSt6vectorIdSaIdEEEdeEv(ptr noundef nonnull align 8 dereferenceable(8) %this) #1 comdat align 2 {
entry:
  %this.addr = alloca ptr, align 8
  store ptr %this, ptr %this.addr, align 8, !tbaa !3
  %this1 = load ptr, ptr %this.addr, align 8
  %_M_current = getelementptr inbounds nuw %"class.__gnu_cxx::__normal_iterator.132", ptr %this1, i32 0, i32 0
  %0 = load ptr, ptr %_M_current, align 8, !tbaa !199
  ret ptr %0
}

; Function Attrs: mustprogress nounwind uwtable
define linkonce_odr ptr @_ZNK9__gnu_cxx17__normal_iteratorIPKdSt6vectorIdSaIdEEEmiEl(ptr noundef nonnull align 8 dereferenceable(8) %this, i64 noundef %__n) #1 comdat align 2 {
entry:
  %retval = alloca %"class.__gnu_cxx::__normal_iterator.132", align 8
  %this.addr = alloca ptr, align 8
  %__n.addr = alloca i64, align 8
  %ref.tmp = alloca ptr, align 8
  store ptr %this, ptr %this.addr, align 8, !tbaa !3
  store i64 %__n, ptr %__n.addr, align 8, !tbaa !53
  %this1 = load ptr, ptr %this.addr, align 8
  call void @llvm.lifetime.start.p0(i64 8, ptr %ref.tmp) #18
  %_M_current = getelementptr inbounds nuw %"class.__gnu_cxx::__normal_iterator.132", ptr %this1, i32 0, i32 0
  %0 = load ptr, ptr %_M_current, align 8, !tbaa !199
  %1 = load i64, ptr %__n.addr, align 8, !tbaa !53
  %idx.neg = sub i64 0, %1
  %add.ptr = getelementptr inbounds double, ptr %0, i64 %idx.neg
  store ptr %add.ptr, ptr %ref.tmp, align 8, !tbaa !3
  call void @_ZN9__gnu_cxx17__normal_iteratorIPKdSt6vectorIdSaIdEEEC2ERKS2_(ptr noundef nonnull align 8 dereferenceable(8) %retval, ptr noundef nonnull align 8 dereferenceable(8) %ref.tmp) #18
  call void @llvm.lifetime.end.p0(i64 8, ptr %ref.tmp) #18
  %coerce.dive = getelementptr inbounds nuw %"class.__gnu_cxx::__normal_iterator.132", ptr %retval, i32 0, i32 0
  %2 = load ptr, ptr %coerce.dive, align 8
  ret ptr %2
}

; Function Attrs: mustprogress nounwind uwtable
define linkonce_odr ptr @_ZNKSt6vectorIdSaIdEE3endEv(ptr noundef nonnull align 8 dereferenceable(24) %this) #1 comdat align 2 {
entry:
  %retval = alloca %"class.__gnu_cxx::__normal_iterator.132", align 8
  %this.addr = alloca ptr, align 8
  store ptr %this, ptr %this.addr, align 8, !tbaa !3
  %this1 = load ptr, ptr %this.addr, align 8
  %_M_impl = getelementptr inbounds nuw %"struct.std::_Vector_base.36", ptr %this1, i32 0, i32 0
  %_M_finish = getelementptr inbounds nuw %"struct.std::_Vector_base<double, std::allocator<double>>::_Vector_impl_data", ptr %_M_impl, i32 0, i32 1
  call void @_ZN9__gnu_cxx17__normal_iteratorIPKdSt6vectorIdSaIdEEEC2ERKS2_(ptr noundef nonnull align 8 dereferenceable(8) %retval, ptr noundef nonnull align 8 dereferenceable(8) %_M_finish) #18
  %coerce.dive = getelementptr inbounds nuw %"class.__gnu_cxx::__normal_iterator.132", ptr %retval, i32 0, i32 0
  %0 = load ptr, ptr %coerce.dive, align 8
  ret ptr %0
}

; Function Attrs: mustprogress nounwind uwtable
define linkonce_odr noundef nonnull align 8 dereferenceable(8) ptr @_ZNKSt6vectorIdSaIdEE4backEv(ptr noundef nonnull align 8 dereferenceable(24) %this) #1 comdat align 2 {
entry:
  %this.addr = alloca ptr, align 8
  %ref.tmp = alloca %"class.__gnu_cxx::__normal_iterator.132", align 8
  %ref.tmp2 = alloca %"class.__gnu_cxx::__normal_iterator.132", align 8
  store ptr %this, ptr %this.addr, align 8, !tbaa !3
  %this1 = load ptr, ptr %this.addr, align 8
  call void @llvm.lifetime.start.p0(i64 8, ptr %ref.tmp) #18
  call void @llvm.lifetime.start.p0(i64 8, ptr %ref.tmp2) #18
  %call = call ptr @_ZNKSt6vectorIdSaIdEE3endEv(ptr noundef nonnull align 8 dereferenceable(24) %this1) #18
  %coerce.dive = getelementptr inbounds nuw %"class.__gnu_cxx::__normal_iterator.132", ptr %ref.tmp2, i32 0, i32 0
  store ptr %call, ptr %coerce.dive, align 8
  %call3 = call ptr @_ZNK9__gnu_cxx17__normal_iteratorIPKdSt6vectorIdSaIdEEEmiEl(ptr noundef nonnull align 8 dereferenceable(8) %ref.tmp2, i64 noundef 1) #18
  %coerce.dive4 = getelementptr inbounds nuw %"class.__gnu_cxx::__normal_iterator.132", ptr %ref.tmp, i32 0, i32 0
  store ptr %call3, ptr %coerce.dive4, align 8
  %call5 = call noundef nonnull align 8 dereferenceable(8) ptr @_ZNK9__gnu_cxx17__normal_iteratorIPKdSt6vectorIdSaIdEEEdeEv(ptr noundef nonnull align 8 dereferenceable(8) %ref.tmp) #18
  call void @llvm.lifetime.end.p0(i64 8, ptr %ref.tmp2) #18
  call void @llvm.lifetime.end.p0(i64 8, ptr %ref.tmp) #18
  ret ptr %call5
}

; Function Attrs: mustprogress nounwind uwtable
define noundef double @_ZNK8QuantLib23RangeAccrualPricerByBgm18derDriftDerLambdaTEdddd(ptr noundef nonnull align 8 dereferenceable(224) %this, double noundef %U, double noundef %lambdaS, double noundef %lambdaT, double noundef %correlation) #1 align 2 {
entry:
  %this.addr = alloca ptr, align 8
  %U.addr = alloca double, align 8
  %lambdaS.addr = alloca double, align 8
  %lambdaT.addr = alloca double, align 8
  %correlation.addr = alloca double, align 8
  %result = alloca double, align 8
  %p = alloca double, align 8
  %q = alloca double, align 8
  %L0T = alloca double, align 8
  %driftBeforeFixing = alloca double, align 8
  %driftAfterFixing = alloca double, align 8
  store ptr %this, ptr %this.addr, align 8, !tbaa !3
  store double %U, ptr %U.addr, align 8, !tbaa !31
  store double %lambdaS, ptr %lambdaS.addr, align 8, !tbaa !31
  store double %lambdaT, ptr %lambdaT.addr, align 8, !tbaa !31
  store double %correlation, ptr %correlation.addr, align 8, !tbaa !31
  %this1 = load ptr, ptr %this.addr, align 8
  call void @llvm.lifetime.start.p0(i64 8, ptr %result) #18
  call void @llvm.lifetime.start.p0(i64 8, ptr %p) #18
  %0 = load double, ptr %U.addr, align 8, !tbaa !31
  %startTime_ = getelementptr inbounds nuw %"class.QuantLib::RangeAccrualPricer", ptr %this1, i32 0, i32 2
  %1 = load double, ptr %startTime_, align 8, !tbaa !83
  %sub = fsub double %0, %1
  %accrualFactor_ = getelementptr inbounds nuw %"class.QuantLib::RangeAccrualPricer", ptr %this1, i32 0, i32 4
  %2 = load double, ptr %accrualFactor_, align 8, !tbaa !81
  %div = fdiv double %sub, %2
  store double %div, ptr %p, align 8, !tbaa !31
  call void @llvm.lifetime.start.p0(i64 8, ptr %q) #18
  %endTime_ = getelementptr inbounds nuw %"class.QuantLib::RangeAccrualPricer", ptr %this1, i32 0, i32 3
  %3 = load double, ptr %endTime_, align 8, !tbaa !84
  %4 = load double, ptr %U.addr, align 8, !tbaa !31
  %sub2 = fsub double %3, %4
  %accrualFactor_3 = getelementptr inbounds nuw %"class.QuantLib::RangeAccrualPricer", ptr %this1, i32 0, i32 4
  %5 = load double, ptr %accrualFactor_3, align 8, !tbaa !81
  %div4 = fdiv double %sub2, %5
  store double %div4, ptr %q, align 8, !tbaa !31
  call void @llvm.lifetime.start.p0(i64 8, ptr %L0T) #18
  %initialValues_ = getelementptr inbounds nuw %"class.QuantLib::RangeAccrualPricer", ptr %this1, i32 0, i32 7
  %call = call noundef nonnull align 8 dereferenceable(8) ptr @_ZNKSt6vectorIdSaIdEE4backEv(ptr noundef nonnull align 8 dereferenceable(24) %initialValues_) #18
  %6 = load double, ptr %call, align 8, !tbaa !31
  store double %6, ptr %L0T, align 8, !tbaa !31
  call void @llvm.lifetime.start.p0(i64 8, ptr %driftBeforeFixing) #18
  %7 = load double, ptr %p, align 8, !tbaa !31
  %accrualFactor_5 = getelementptr inbounds nuw %"class.QuantLib::RangeAccrualPricer", ptr %this1, i32 0, i32 4
  %8 = load double, ptr %accrualFactor_5, align 8, !tbaa !81
  %mul = fmul double %7, %8
  %9 = load double, ptr %L0T, align 8, !tbaa !31
  %mul6 = fmul double %mul, %9
  %10 = load double, ptr %L0T, align 8, !tbaa !31
  %accrualFactor_7 = getelementptr inbounds nuw %"class.QuantLib::RangeAccrualPricer", ptr %this1, i32 0, i32 4
  %11 = load double, ptr %accrualFactor_7, align 8, !tbaa !81
  %12 = call double @llvm.fmuladd.f64(double %10, double %11, double 1.000000e+00)
  %div9 = fdiv double %mul6, %12
  %13 = load double, ptr %p, align 8, !tbaa !31
  %mul10 = fmul double 2.000000e+00, %13
  %14 = load double, ptr %lambdaT.addr, align 8, !tbaa !31
  %15 = load double, ptr %q, align 8, !tbaa !31
  %16 = load double, ptr %lambdaS.addr, align 8, !tbaa !31
  %mul12 = fmul double %15, %16
  %17 = load double, ptr %correlation.addr, align 8, !tbaa !31
  %mul13 = fmul double %mul12, %17
  %18 = call double @llvm.fmuladd.f64(double %mul10, double %14, double %mul13)
  %19 = load double, ptr %p, align 8, !tbaa !31
  %20 = load double, ptr %lambdaS.addr, align 8, !tbaa !31
  %mul15 = fmul double %19, %20
  %21 = load double, ptr %correlation.addr, align 8, !tbaa !31
  %mul16 = fmul double %mul15, %21
  %22 = call double @llvm.fmuladd.f64(double %div9, double %18, double %mul16)
  store double %22, ptr %driftBeforeFixing, align 8, !tbaa !31
  call void @llvm.lifetime.start.p0(i64 8, ptr %driftAfterFixing) #18
  %23 = load double, ptr %p, align 8, !tbaa !31
  %accrualFactor_17 = getelementptr inbounds nuw %"class.QuantLib::RangeAccrualPricer", ptr %this1, i32 0, i32 4
  %24 = load double, ptr %accrualFactor_17, align 8, !tbaa !81
  %mul18 = fmul double %23, %24
  %25 = load double, ptr %L0T, align 8, !tbaa !31
  %mul19 = fmul double %mul18, %25
  %26 = load double, ptr %L0T, align 8, !tbaa !31
  %accrualFactor_20 = getelementptr inbounds nuw %"class.QuantLib::RangeAccrualPricer", ptr %this1, i32 0, i32 4
  %27 = load double, ptr %accrualFactor_20, align 8, !tbaa !81
  %28 = call double @llvm.fmuladd.f64(double %26, double %27, double 1.000000e+00)
  %div22 = fdiv double %mul19, %28
  %sub23 = fsub double %div22, 5.000000e-01
  %mul24 = fmul double %sub23, 2.000000e+00
  %29 = load double, ptr %lambdaT.addr, align 8, !tbaa !31
  %mul25 = fmul double %mul24, %29
  store double %mul25, ptr %driftAfterFixing, align 8, !tbaa !31
  %startTime_26 = getelementptr inbounds nuw %"class.QuantLib::RangeAccrualPricer", ptr %this1, i32 0, i32 2
  %30 = load double, ptr %startTime_26, align 8, !tbaa !83
  %cmp = fcmp ogt double %30, 0.000000e+00
  br i1 %cmp, label %if.then, label %if.else

if.then:                                          ; preds = %entry
  %31 = load double, ptr %driftBeforeFixing, align 8, !tbaa !31
  store double %31, ptr %result, align 8, !tbaa !31
  br label %if.end

if.else:                                          ; preds = %entry
  %32 = load double, ptr %driftAfterFixing, align 8, !tbaa !31
  store double %32, ptr %result, align 8, !tbaa !31
  br label %if.end

if.end:                                           ; preds = %if.else, %if.then
  %33 = load double, ptr %result, align 8, !tbaa !31
  call void @llvm.lifetime.end.p0(i64 8, ptr %driftAfterFixing) #18
  call void @llvm.lifetime.end.p0(i64 8, ptr %driftBeforeFixing) #18
  call void @llvm.lifetime.end.p0(i64 8, ptr %L0T) #18
  call void @llvm.lifetime.end.p0(i64 8, ptr %q) #18
  call void @llvm.lifetime.end.p0(i64 8, ptr %p) #18
  call void @llvm.lifetime.end.p0(i64 8, ptr %result) #18
  ret double %33
}