; Function Attrs: mustprogress nofree norecurse nosync nounwind willreturn memory(read, inaccessiblemem: none) uwtable
define noundef double @_ZNK8QuantLib23RangeAccrualPricerByBgm18derDriftDerLambdaTEdddd(ptr nocapture noundef nonnull readonly align 8 dereferenceable(224) %this, double noundef %U, double noundef %lambdaS, double noundef %lambdaT, double noundef %correlation) local_unnamed_addr #18 align 2 {
entry:
  %startTime_ = getelementptr inbounds nuw i8, ptr %this, i64 16
  %0 = load double, ptr %startTime_, align 8, !tbaa !115
  %sub = fsub double %U, %0
  %accrualFactor_ = getelementptr inbounds nuw i8, ptr %this, i64 32
  %1 = load double, ptr %accrualFactor_, align 8, !tbaa !113
  %div = fdiv double %sub, %1
  %_M_finish.i.i = getelementptr inbounds nuw i8, ptr %this, i64 96
  %2 = load ptr, ptr %_M_finish.i.i, align 8, !tbaa !3
  %add.ptr.i.i = getelementptr inbounds i8, ptr %2, i64 -8
  %3 = load double, ptr %add.ptr.i.i, align 8, !tbaa !88
  %mul = fmul double %1, %div
  %mul6 = fmul double %mul, %3
  %4 = tail call double @llvm.fmuladd.f64(double %3, double %1, double 1.000000e+00)
  %div9 = fdiv double %mul6, %4
  %cmp = fcmp ogt double %0, 0.000000e+00
  br i1 %cmp, label %if.then, label %if.else

if.then:                                          ; preds = %entry
  %endTime_ = getelementptr inbounds nuw i8, ptr %this, i64 24
  %5 = load double, ptr %endTime_, align 8, !tbaa !116
  %mul10 = fmul double %div, 2.000000e+00
  %sub2 = fsub double %5, %U
  %div4 = fdiv double %sub2, %1
  %mul12 = fmul double %lambdaS, %div4
  %mul13 = fmul double %correlation, %mul12
  %6 = tail call double @llvm.fmuladd.f64(double %mul10, double %lambdaT, double %mul13)
  %mul15 = fmul double %lambdaS, %div
  %mul16 = fmul double %correlation, %mul15
  %7 = tail call double @llvm.fmuladd.f64(double %div9, double %6, double %mul16)
  br label %if.end

if.else:                                          ; preds = %entry
  %sub23 = fadd double %div9, -5.000000e-01
  %mul24 = fmul double %sub23, 2.000000e+00
  %mul25 = fmul double %lambdaT, %mul24
  br label %if.end

if.end:                                           ; preds = %if.else, %if.then
  %result.0 = phi double [ %7, %if.then ], [ %mul25, %if.else ]
  ret double %result.0
}